ARM GAS  C:\Users\Arisvis\AppData\Local\Temp\cc1CTkHm.s 			page 1


   1              		.syntax unified
   2              		.cpu cortex-m3
   3              		.fpu softvfp
   4              		.eabi_attribute 20, 1
   5              		.eabi_attribute 21, 1
   6              		.eabi_attribute 23, 3
   7              		.eabi_attribute 24, 1
   8              		.eabi_attribute 25, 1
   9              		.eabi_attribute 26, 1
  10              		.eabi_attribute 30, 1
  11              		.eabi_attribute 34, 1
  12              		.eabi_attribute 18, 4
  13              		.thumb
  14              		.syntax unified
  15              		.file	"main.c"
  16              		.text
  17              	.Ltext0:
  18              		.cfi_sections	.debug_frame
  19              		.global	__aeabi_ui2f
  20              		.section	.text.DHTread,"ax",%progbits
  21              		.align	2
  22              		.global	DHTread
  23              		.thumb
  24              		.thumb_func
  25              		.type	DHTread, %function
  26              	DHTread:
  27              	.LFB64:
  28              		.file 1 "main.c"
   1:main.c        **** /* ========================================
   2:main.c        ****  *
   3:main.c        ****  * Copyright YOUR COMPANY, THE YEAR
   4:main.c        ****  * All Rights Reserved
   5:main.c        ****  * UNPUBLISHED, LICENSED SOFTWARE.
   6:main.c        ****  *
   7:main.c        ****  * CONFIDENTIAL AND PROPRIETARY INFORMATION
   8:main.c        ****  * WHICH IS THE PROPERTY OF your company.
   9:main.c        ****  *
  10:main.c        ****  * ========================================
  11:main.c        **** */
  12:main.c        **** #include "project.h"
  13:main.c        **** #include "stdio.h"
  14:main.c        **** 
  15:main.c        **** static float temperature=99;
  16:main.c        **** static float humidity=99;
  17:main.c        **** 
  18:main.c        **** 
  19:main.c        **** int DHTread() 
  20:main.c        **** {     
  29              		.loc 1 20 0
  30              		.cfi_startproc
  31              		@ args = 0, pretend = 0, frame = 8
  32              		@ frame_needed = 0, uses_anonymous_args = 0
  33 0000 2DE9F043 		push	{r4, r5, r6, r7, r8, r9, lr}
  34              		.cfi_def_cfa_offset 28
  35              		.cfi_offset 4, -28
  36              		.cfi_offset 5, -24
  37              		.cfi_offset 6, -20
ARM GAS  C:\Users\Arisvis\AppData\Local\Temp\cc1CTkHm.s 			page 2


  38              		.cfi_offset 7, -16
  39              		.cfi_offset 8, -12
  40              		.cfi_offset 9, -8
  41              		.cfi_offset 14, -4
  42 0004 83B0     		sub	sp, sp, #12
  43              		.cfi_def_cfa_offset 40
  21:main.c        ****    int i;
  22:main.c        ****    uint16 IState;
  23:main.c        ****    IState=CyEnterCriticalSection();  
  44              		.loc 1 23 0
  45 0006 FFF7FEFF 		bl	CyEnterCriticalSection
  46              	.LVL0:
  47 000a 8146     		mov	r9, r0
  48              	.LVL1:
  24:main.c        ****     uint16 bits[2]; 
  25:main.c        ****     uint16 cnt = 15; 
  26:main.c        **** 	uint16 idx = 0; 
  27:main.c        ****    int   calc=0; 
  28:main.c        ****    int   timeout=0;
  29:main.c        ****     
  30:main.c        ****    for (i=0; i< 5; i++)  
  49              		.loc 1 30 0
  50 000c 0023     		movs	r3, #0
  51 000e 06E0     		b	.L2
  52              	.LVL2:
  53              	.L3:
  31:main.c        ****        bits[i] = 0; 
  54              		.loc 1 31 0 discriminator 3
  55 0010 02AA     		add	r2, sp, #8
  56 0012 02EB4302 		add	r2, r2, r3, lsl #1
  57 0016 0021     		movs	r1, #0
  58 0018 22F8041C 		strh	r1, [r2, #-4]	@ movhi
  30:main.c        ****        bits[i] = 0; 
  59              		.loc 1 30 0 discriminator 3
  60 001c 0133     		adds	r3, r3, #1
  61              	.LVL3:
  62              	.L2:
  30:main.c        ****        bits[i] = 0; 
  63              		.loc 1 30 0 is_stmt 0 discriminator 1
  64 001e 042B     		cmp	r3, #4
  65 0020 F6DD     		ble	.L3
  32:main.c        ****   
  33:main.c        ****    DHT_Write(0u); 
  66              		.loc 1 33 0 is_stmt 1
  67 0022 0020     		movs	r0, #0
  68 0024 FFF7FEFF 		bl	DHT_Write
  69              	.LVL4:
  34:main.c        ****    CyDelay(19); 
  70              		.loc 1 34 0
  71 0028 1320     		movs	r0, #19
  72 002a FFF7FEFF 		bl	CyDelay
  73              	.LVL5:
  35:main.c        ****    DHT_Write(1u);
  74              		.loc 1 35 0
  75 002e 0120     		movs	r0, #1
  76 0030 FFF7FEFF 		bl	DHT_Write
  77              	.LVL6:
ARM GAS  C:\Users\Arisvis\AppData\Local\Temp\cc1CTkHm.s 			page 3


  28:main.c        ****     
  78              		.loc 1 28 0
  79 0034 0025     		movs	r5, #0
  36:main.c        ****    
  37:main.c        ****    while(DHT_Read()==1) 
  80              		.loc 1 37 0
  81 0036 03E0     		b	.L4
  82              	.LVL7:
  83              	.L6:
  38:main.c        ****    { 
  39:main.c        ****        timeout++; 
  84              		.loc 1 39 0
  85 0038 0135     		adds	r5, r5, #1
  86              	.LVL8:
  40:main.c        ****        if(timeout>500) 
  87              		.loc 1 40 0
  88 003a B5F5FA7F 		cmp	r5, #500
  89 003e 4FDC     		bgt	.L5
  90              	.LVL9:
  91              	.L4:
  37:main.c        ****    { 
  92              		.loc 1 37 0
  93 0040 FFF7FEFF 		bl	DHT_Read
  94              	.LVL10:
  95 0044 0128     		cmp	r0, #1
  96 0046 F7D0     		beq	.L6
  97 0048 03E0     		b	.L7
  98              	.L8:
  41:main.c        ****            goto r99;  //DHT error function 
  42:main.c        ****    } 
  43:main.c        ****    while(DHT_Read()==0) 
  44:main.c        ****    {         
  45:main.c        ****        timeout++; 
  99              		.loc 1 45 0
 100 004a 0135     		adds	r5, r5, #1
 101              	.LVL11:
  46:main.c        ****        if(timeout>500) 
 102              		.loc 1 46 0
 103 004c B5F5FA7F 		cmp	r5, #500
 104 0050 46DC     		bgt	.L5
 105              	.L7:
  43:main.c        ****    {         
 106              		.loc 1 43 0
 107 0052 FFF7FEFF 		bl	DHT_Read
 108              	.LVL12:
 109 0056 0028     		cmp	r0, #0
 110 0058 F7D0     		beq	.L8
 111              	.L9:
  47:main.c        ****            goto r99; //DHT error function 
  48:main.c        ****    } 
  49:main.c        ****    calc=timeout; 
  50:main.c        ****    timeout=0; 
  51:main.c        ****    while(DHT_Read()==1); 
 112              		.loc 1 51 0 discriminator 1
 113 005a FFF7FEFF 		bl	DHT_Read
 114              	.LVL13:
 115 005e 0128     		cmp	r0, #1
ARM GAS  C:\Users\Arisvis\AppData\Local\Temp\cc1CTkHm.s 			page 4


 116 0060 FBD0     		beq	.L9
 117 0062 4FF00008 		mov	r8, #0
 118 0066 0F26     		movs	r6, #15
 119 0068 4746     		mov	r7, r8
 120 006a 24E0     		b	.L10
 121              	.LVL14:
 122              	.L11:
  52:main.c        ****    for (i=0; i<40; i++) 
  53:main.c        **** 	{ 
  54:main.c        ****        timeout=0; 
  55:main.c        ****        while(DHT_Read()==0); 
 123              		.loc 1 55 0 discriminator 1
 124 006c FFF7FEFF 		bl	DHT_Read
 125              	.LVL15:
 126 0070 0028     		cmp	r0, #0
 127 0072 FBD0     		beq	.L11
 128 0074 0024     		movs	r4, #0
 129 0076 00E0     		b	.L12
 130              	.LVL16:
 131              	.L13:
  56:main.c        ****        while(DHT_Read()==1) 
  57:main.c        ****            timeout++; 
 132              		.loc 1 57 0
 133 0078 0134     		adds	r4, r4, #1
 134              	.LVL17:
 135              	.L12:
  56:main.c        ****        while(DHT_Read()==1) 
 136              		.loc 1 56 0
 137 007a FFF7FEFF 		bl	DHT_Read
 138              	.LVL18:
 139 007e 0128     		cmp	r0, #1
 140 0080 FAD0     		beq	.L13
  58:main.c        ****        //Data acquiring point 
  59:main.c        ****        if ((timeout) > (calc/2)) 
 141              		.loc 1 59 0
 142 0082 05EBD573 		add	r3, r5, r5, lsr #31
 143 0086 B4EB630F 		cmp	r4, r3, asr #1
 144 008a 0ADD     		ble	.L14
  60:main.c        ****            bits[idx] |= (1 << cnt); 
 145              		.loc 1 60 0
 146 008c 0123     		movs	r3, #1
 147 008e 03FA06F2 		lsl	r2, r3, r6
 148 0092 02AB     		add	r3, sp, #8
 149 0094 03EB4801 		add	r1, r3, r8, lsl #1
 150 0098 31F8043C 		ldrh	r3, [r1, #-4]
 151 009c 1343     		orrs	r3, r3, r2
 152 009e 21F8043C 		strh	r3, [r1, #-4]	@ movhi
 153              	.L14:
  61:main.c        ****        if (cnt == 0)   // next byte? 
 154              		.loc 1 61 0
 155 00a2 2EB9     		cbnz	r6, .L15
 156              	.LVL19:
  62:main.c        ****    	{ 
  63:main.c        ****    		cnt = 15;    // restart at MSB 
  64:main.c        ****    		idx++;      // next byte! 
 157              		.loc 1 64 0
 158 00a4 08F10108 		add	r8, r8, #1
ARM GAS  C:\Users\Arisvis\AppData\Local\Temp\cc1CTkHm.s 			page 5


 159              	.LVL20:
 160 00a8 1FFA88F8 		uxth	r8, r8
 161              	.LVL21:
  63:main.c        ****    		idx++;      // next byte! 
 162              		.loc 1 63 0
 163 00ac 0F26     		movs	r6, #15
 164 00ae 01E0     		b	.L16
 165              	.LVL22:
 166              	.L15:
  65:main.c        ****    	} 
  66:main.c        ****    	else cnt--; 
 167              		.loc 1 66 0
 168 00b0 013E     		subs	r6, r6, #1
 169              	.LVL23:
 170 00b2 B6B2     		uxth	r6, r6
 171              	.LVL24:
 172              	.L16:
  52:main.c        **** 	{ 
 173              		.loc 1 52 0 discriminator 2
 174 00b4 0137     		adds	r7, r7, #1
 175              	.LVL25:
 176              	.L10:
  52:main.c        **** 	{ 
 177              		.loc 1 52 0 is_stmt 0 discriminator 1
 178 00b6 272F     		cmp	r7, #39
 179 00b8 D8DD     		ble	.L11
  67:main.c        ****    } 
  68:main.c        ****    humidity    = bits[0];  
 180              		.loc 1 68 0 is_stmt 1
 181 00ba 0F4C     		ldr	r4, .L19
 182 00bc BDF80400 		ldrh	r0, [sp, #4]
 183 00c0 FFF7FEFF 		bl	__aeabi_ui2f
 184              	.LVL26:
 185 00c4 2060     		str	r0, [r4]	@ float
  69:main.c        ****    temperature = bits[1];
 186              		.loc 1 69 0
 187 00c6 BDF80600 		ldrh	r0, [sp, #6]
 188 00ca FFF7FEFF 		bl	__aeabi_ui2f
 189              	.LVL27:
 190 00ce 6060     		str	r0, [r4, #4]	@ float
  70:main.c        **** 
  71:main.c        ****    CyExitCriticalSection(IState); 
 191              		.loc 1 71 0
 192 00d0 4846     		mov	r0, r9
 193 00d2 FFF7FEFF 		bl	CyExitCriticalSection
 194              	.LVL28:
  72:main.c        ****    CyDelay(1); 
 195              		.loc 1 72 0
 196 00d6 0120     		movs	r0, #1
 197 00d8 FFF7FEFF 		bl	CyDelay
 198              	.LVL29:
  73:main.c        ****    return 0; 
 199              		.loc 1 73 0
 200 00dc 0020     		movs	r0, #0
 201 00de 07E0     		b	.L17
 202              	.LVL30:
 203              	.L5:
ARM GAS  C:\Users\Arisvis\AppData\Local\Temp\cc1CTkHm.s 			page 6


  74:main.c        ****    r99:    //Goto label for error in DHT reading 
  75:main.c        ****        humidity    = 99;  
 204              		.loc 1 75 0
 205 00e0 054B     		ldr	r3, .L19
 206 00e2 064A     		ldr	r2, .L19+4
 207 00e4 1A60     		str	r2, [r3]	@ float
  76:main.c        ****        temperature = 99;  
 208              		.loc 1 76 0
 209 00e6 5A60     		str	r2, [r3, #4]	@ float
  77:main.c        ****        CyExitCriticalSection(IState); 
 210              		.loc 1 77 0
 211 00e8 4846     		mov	r0, r9
 212 00ea FFF7FEFF 		bl	CyExitCriticalSection
 213              	.LVL31:
  78:main.c        ****        return 99; 
 214              		.loc 1 78 0
 215 00ee 6320     		movs	r0, #99
 216              	.LVL32:
 217              	.L17:
  79:main.c        **** }
 218              		.loc 1 79 0
 219 00f0 03B0     		add	sp, sp, #12
 220              		.cfi_def_cfa_offset 28
 221              		@ sp needed
 222 00f2 BDE8F083 		pop	{r4, r5, r6, r7, r8, r9, pc}
 223              	.LVL33:
 224              	.L20:
 225 00f6 00BF     		.align	2
 226              	.L19:
 227 00f8 00000000 		.word	.LANCHOR0
 228 00fc 0000C642 		.word	1120272384
 229              		.cfi_endproc
 230              	.LFE64:
 231              		.size	DHTread, .-DHTread
 232              		.global	__aeabi_fdiv
 233              		.global	__aeabi_f2d
 234              		.section	.text.main,"ax",%progbits
 235              		.align	2
 236              		.global	main
 237              		.thumb
 238              		.thumb_func
 239              		.type	main, %function
 240              	main:
 241              	.LFB65:
  80:main.c        **** int main(void)
  81:main.c        **** {
 242              		.loc 1 81 0
 243              		.cfi_startproc
 244              		@ args = 0, pretend = 0, frame = 40
 245              		@ frame_needed = 0, uses_anonymous_args = 0
 246 0000 70B5     		push	{r4, r5, r6, lr}
 247              		.cfi_def_cfa_offset 16
 248              		.cfi_offset 4, -16
 249              		.cfi_offset 5, -12
 250              		.cfi_offset 6, -8
 251              		.cfi_offset 14, -4
 252 0002 8CB0     		sub	sp, sp, #48
ARM GAS  C:\Users\Arisvis\AppData\Local\Temp\cc1CTkHm.s 			page 7


 253              		.cfi_def_cfa_offset 64
  82:main.c        ****     CyGlobalIntEnable; /* Enable global interrupts. */
 254              		.loc 1 82 0
 255              		.syntax unified
 256              	@ 82 "main.c" 1
 257 0004 62B6     		CPSIE   i
 258              	@ 0 "" 2
  83:main.c        ****     
  84:main.c        ****     char outputstring[40];
  85:main.c        ****     UART_Start();
 259              		.loc 1 85 0
 260              		.thumb
 261              		.syntax unified
 262 0006 FFF7FEFF 		bl	UART_Start
 263              	.LVL34:
 264              	.L22:
  86:main.c        ****     
  87:main.c        ****     for(;;)
  88:main.c        ****     {
  89:main.c        ****         DHTread();
 265              		.loc 1 89 0 discriminator 1
 266 000a FFF7FEFF 		bl	DHTread
 267              	.LVL35:
  90:main.c        ****         sprintf(outputstring,"Temperatura= %.2f°C Humedad= %.2f \r\n",temperature/10,humidity/10);
 268              		.loc 1 90 0 discriminator 1
 269 000e 114C     		ldr	r4, .L24
 270 0010 1149     		ldr	r1, .L24+4
 271 0012 6068     		ldr	r0, [r4, #4]	@ float
 272 0014 FFF7FEFF 		bl	__aeabi_fdiv
 273              	.LVL36:
 274 0018 0546     		mov	r5, r0
 275 001a 0F49     		ldr	r1, .L24+4
 276 001c 2068     		ldr	r0, [r4]	@ float
 277 001e FFF7FEFF 		bl	__aeabi_fdiv
 278              	.LVL37:
 279 0022 0646     		mov	r6, r0
 280 0024 2846     		mov	r0, r5
 281 0026 FFF7FEFF 		bl	__aeabi_f2d
 282              	.LVL38:
 283 002a 0446     		mov	r4, r0
 284 002c 0D46     		mov	r5, r1
 285 002e 3046     		mov	r0, r6
 286 0030 FFF7FEFF 		bl	__aeabi_f2d
 287              	.LVL39:
 288 0034 CDE90001 		strd	r0, [sp]
 289 0038 2246     		mov	r2, r4
 290 003a 2B46     		mov	r3, r5
 291 003c 0749     		ldr	r1, .L24+8
 292 003e 02A8     		add	r0, sp, #8
 293 0040 FFF7FEFF 		bl	sprintf
 294              	.LVL40:
  91:main.c        ****         UART_PutString(outputstring);
 295              		.loc 1 91 0 discriminator 1
 296 0044 02A8     		add	r0, sp, #8
 297 0046 FFF7FEFF 		bl	UART_PutString
 298              	.LVL41:
  92:main.c        ****         CyDelay(1000);  //Delay in milli seconds.        
ARM GAS  C:\Users\Arisvis\AppData\Local\Temp\cc1CTkHm.s 			page 8


 299              		.loc 1 92 0 discriminator 1
 300 004a 4FF47A70 		mov	r0, #1000
 301 004e FFF7FEFF 		bl	CyDelay
 302              	.LVL42:
 303 0052 DAE7     		b	.L22
 304              	.L25:
 305              		.align	2
 306              	.L24:
 307 0054 00000000 		.word	.LANCHOR0
 308 0058 00002041 		.word	1092616192
 309 005c 00000000 		.word	.LC0
 310              		.cfi_endproc
 311              	.LFE65:
 312              		.size	main, .-main
 313              		.data
 314              		.align	2
 315              		.set	.LANCHOR0,. + 0
 316              		.type	humidity, %object
 317              		.size	humidity, 4
 318              	humidity:
 319 0000 0000C642 		.word	1120272384
 320              		.type	temperature, %object
 321              		.size	temperature, 4
 322              	temperature:
 323 0004 0000C642 		.word	1120272384
 324              		.section	.rodata.str1.4,"aMS",%progbits,1
 325              		.align	2
 326              	.LC0:
 327 0000 54656D70 		.ascii	"Temperatura= %.2f\302\260C Humedad= %.2f \015\012\000"
 327      65726174 
 327      7572613D 
 327      20252E32 
 327      66C2B043 
 328              		.text
 329              	.Letext0:
 330              		.file 2 "c:\\program files (x86)\\cypress\\psoc creator\\4.4\\psoc creator\\import\\gnu\\arm\\5.4.
 331              		.file 3 "c:\\program files (x86)\\cypress\\psoc creator\\4.4\\psoc creator\\import\\gnu\\arm\\5.4.
 332              		.file 4 "Generated_Source\\PSoC5/cytypes.h"
 333              		.file 5 "Generated_Source\\PSoC5/CyLib.h"
 334              		.file 6 "Generated_Source\\PSoC5/DHT.h"
 335              		.file 7 "Generated_Source\\PSoC5/UART.h"
 336              		.file 8 "c:\\program files (x86)\\cypress\\psoc creator\\4.4\\psoc creator\\import\\gnu\\arm\\5.4.
 337              		.file 9 "Generated_Source\\PSoC5/core_cm3.h"